target datalayout = "e-m:e-p270:32:32-p271:32:32-p272:64:64-i64:64-i128:128-f80:128-n8:16:32:64-S128"
target triple = "x86_64-pc-linux-gnu"

@.str.3 = private unnamed_addr constant [2 x i8] c"\0A\00", align 1
@.str.4 = private unnamed_addr constant [41 x i8] c"    xilinx_dffopt [options] [selection]\0A\00", align 1
@.str.5 = private unnamed_addr constant [74 x i8] c"Converts hardware clock enable and set/reset signals on FFs to emulation\0A\00", align 1
@.str.6 = private unnamed_addr constant [78 x i8] c"using LUTs, if doing so would improve area.  Operates on post-techmap Xilinx\0A\00", align 1
@.str.7 = private unnamed_addr constant [20 x i8] c"cells (LUT*, FD*).\0A\00", align 1
@.str.8 = private unnamed_addr constant [11 x i8] c"    -lut4\0A\00", align 1
@.str.9 = private unnamed_addr constant [70 x i8] c"        Assume a LUT4-based device (instead of a LUT6-based device).\0A\00", align 1

; Function Attrs: mustprogress uwtable
define internal void @_ZN12_GLOBAL__N_116XilinxDffOptPass4helpEv(ptr noundef nonnull align 8 dereferenceable(104) %0) unnamed_addr #4 align 2 {
  %2 = alloca ptr, align 8
  store ptr %0, ptr %2, align 8
  call void (ptr, ...) @_ZN5Yosys3logEPKcz(ptr noundef @.str.3)
  call void (ptr, ...) @_ZN5Yosys3logEPKcz(ptr noundef @.str.4)
  call void (ptr, ...) @_ZN5Yosys3logEPKcz(ptr noundef @.str.3)
  call void (ptr, ...) @_ZN5Yosys3logEPKcz(ptr noundef @.str.5)
  call void (ptr, ...) @_ZN5Yosys3logEPKcz(ptr noundef @.str.6)
  call void (ptr, ...) @_ZN5Yosys3logEPKcz(ptr noundef @.str.7)
  call void (ptr, ...) @_ZN5Yosys3logEPKcz(ptr noundef @.str.3)
  call void (ptr, ...) @_ZN5Yosys3logEPKcz(ptr noundef @.str.8)
  call void (ptr, ...) @_ZN5Yosys3logEPKcz(ptr noundef @.str.9)
  call void (ptr, ...) @_ZN5Yosys3logEPKcz(ptr noundef @.str.3)
  ret void
}